target datalayout = "e-m:e-p270:32:32-p271:32:32-p272:64:64-i64:64-i128:128-f80:128-n8:16:32:64-S128"
target triple = "x86_64-unknown-linux-gnu"

%"class.grpc_core::ConnectedSubchannel" = type { %"class.grpc_core::RefCounted", ptr, %"class.grpc_core::ChannelArgs", %"class.grpc_core::RefCountedPtr" }
%"class.grpc_core::RefCounted" = type { %"class.grpc_core::PolymorphicRefCount", %"class.grpc_core::RefCount" }
%"class.grpc_core::PolymorphicRefCount" = type { ptr }
%"class.grpc_core::RefCount" = type { %"struct.std::atomic.0" }
%"struct.std::atomic.0" = type { %"struct.std::__atomic_base.1" }
%"struct.std::__atomic_base.1" = type { i64 }
%"class.grpc_core::ChannelArgs" = type { %"class.grpc_core::AVL" }
%"class.grpc_core::AVL" = type { %"class.grpc_core::RefCountedPtr.2" }
%"class.grpc_core::RefCountedPtr.2" = type { ptr }
%"class.grpc_core::RefCountedPtr" = type { ptr }
%struct.grpc_closure = type { %union.anon, ptr, ptr, %union.anon.3 }
%union.anon = type { ptr }
%union.anon.3 = type { i64 }
%struct.grpc_transport_op = type { ptr, %"class.std::unique_ptr", ptr, %"class.absl::lts_20230802::Status", %"class.absl::lts_20230802::Status", ptr, ptr, ptr, ptr, ptr, ptr, ptr, %struct.anon, i32, i8, i8, i8, %struct.grpc_handler_private_op_data }
%"class.std::unique_ptr" = type { %"struct.std::__uniq_ptr_data" }
%"struct.std::__uniq_ptr_data" = type { %"class.std::__uniq_ptr_impl" }
%"class.std::__uniq_ptr_impl" = type { %"class.std::tuple" }
%"class.std::tuple" = type { %"struct.std::_Tuple_impl" }
%"struct.std::_Tuple_impl" = type { %"struct.std::_Head_base.7" }
%"struct.std::_Head_base.7" = type { ptr }
%"class.absl::lts_20230802::Status" = type { i64 }
%struct.anon = type { ptr, ptr }
%struct.grpc_handler_private_op_data = type { ptr, %struct.grpc_closure }
%struct.grpc_channel_element = type { ptr, ptr }
%struct.grpc_channel_filter = type { ptr, ptr, ptr, ptr, i64, ptr, ptr, ptr, i64, ptr, ptr, ptr, ptr, ptr }

; Function Attrs: mustprogress nounwind uwtable
define linkonce_odr noundef nonnull align 8 dereferenceable(8) ptr @_ZNSt10_Head_baseILm0EPN9grpc_core33ConnectivityStateWatcherInterfaceELb0EE7_M_headERS3_(ptr noundef nonnull align 8 dereferenceable(8) %__b) #5 comdat align 2 {
entry:
  %__b.addr = alloca ptr, align 8
  store ptr %__b, ptr %__b.addr, align 8
  %0 = load ptr, ptr %__b.addr, align 8
  %_M_head_impl = getelementptr inbounds %"struct.std::_Head_base.7", ptr %0, i32 0, i32 0
  ret ptr %_M_head_impl
}

; Function Attrs: mustprogress nounwind uwtable
define linkonce_odr noundef nonnull align 1 dereferenceable(1) ptr @_ZNSt10_Head_baseILm1EN9grpc_core16OrphanableDeleteELb1EE7_M_headERS2_(ptr noundef nonnull align 1 dereferenceable(1) %__b) #5 comdat align 2 {
entry:
  %__b.addr = alloca ptr, align 8
  store ptr %__b, ptr %__b.addr, align 8
  %0 = load ptr, ptr %__b.addr, align 8
  ret ptr %0
}

; Function Attrs: mustprogress nounwind uwtable
define linkonce_odr noundef nonnull align 8 dereferenceable(8) ptr @_ZNSt11_Tuple_implILm0EJPN9grpc_core33ConnectivityStateWatcherInterfaceENS0_16OrphanableDeleteEEE7_M_headERS4_(ptr noundef nonnull align 8 dereferenceable(8) %__t) #5 comdat align 2 {
entry:
  %__t.addr = alloca ptr, align 8
  store ptr %__t, ptr %__t.addr, align 8
  %0 = load ptr, ptr %__t.addr, align 8
  %call = call noundef nonnull align 8 dereferenceable(8) ptr @_ZNSt10_Head_baseILm0EPN9grpc_core33ConnectivityStateWatcherInterfaceELb0EE7_M_headERS3_(ptr noundef nonnull align 8 dereferenceable(8) %0) #3
  ret ptr %call
}

; Function Attrs: mustprogress nounwind uwtable
define linkonce_odr noundef nonnull align 1 dereferenceable(1) ptr @_ZNSt11_Tuple_implILm1EJN9grpc_core16OrphanableDeleteEEE7_M_headERS2_(ptr noundef nonnull align 1 dereferenceable(1) %__t) #5 comdat align 2 {
entry:
  %__t.addr = alloca ptr, align 8
  store ptr %__t, ptr %__t.addr, align 8
  %0 = load ptr, ptr %__t.addr, align 8
  %call = call noundef nonnull align 1 dereferenceable(1) ptr @_ZNSt10_Head_baseILm1EN9grpc_core16OrphanableDeleteELb1EE7_M_headERS2_(ptr noundef nonnull align 1 dereferenceable(1) %0) #3
  ret ptr %call
}

; Function Attrs: mustprogress nounwind uwtable
define linkonce_odr noundef nonnull align 8 dereferenceable(8) ptr @_ZSt12__get_helperILm0EPN9grpc_core33ConnectivityStateWatcherInterfaceEJNS0_16OrphanableDeleteEEERT0_RSt11_Tuple_implIXT_EJS4_DpT1_EE(ptr noundef nonnull align 8 dereferenceable(8) %__t) #5 comdat {
entry:
  %__t.addr = alloca ptr, align 8
  store ptr %__t, ptr %__t.addr, align 8
  %0 = load ptr, ptr %__t.addr, align 8
  %call = call noundef nonnull align 8 dereferenceable(8) ptr @_ZNSt11_Tuple_implILm0EJPN9grpc_core33ConnectivityStateWatcherInterfaceENS0_16OrphanableDeleteEEE7_M_headERS4_(ptr noundef nonnull align 8 dereferenceable(8) %0) #3
  ret ptr %call
}

; Function Attrs: mustprogress nounwind uwtable
define linkonce_odr noundef nonnull align 1 dereferenceable(1) ptr @_ZSt12__get_helperILm1EN9grpc_core16OrphanableDeleteEJEERT0_RSt11_Tuple_implIXT_EJS2_DpT1_EE(ptr noundef nonnull align 1 dereferenceable(1) %__t) #5 comdat {
entry:
  %__t.addr = alloca ptr, align 8
  store ptr %__t, ptr %__t.addr, align 8
  %0 = load ptr, ptr %__t.addr, align 8
  %call = call noundef nonnull align 1 dereferenceable(1) ptr @_ZNSt11_Tuple_implILm1EJN9grpc_core16OrphanableDeleteEEE7_M_headERS2_(ptr noundef nonnull align 1 dereferenceable(1) %0) #3
  ret ptr %call
}

; Function Attrs: mustprogress nounwind uwtable
define linkonce_odr noundef nonnull align 8 dereferenceable(8) ptr @_ZSt3getILm0EJPN9grpc_core33ConnectivityStateWatcherInterfaceENS0_16OrphanableDeleteEEERNSt13tuple_elementIXT_ESt5tupleIJDpT0_EEE4typeERS8_(ptr noundef nonnull align 8 dereferenceable(8) %__t) #5 comdat {
entry:
  %__t.addr = alloca ptr, align 8
  store ptr %__t, ptr %__t.addr, align 8
  %0 = load ptr, ptr %__t.addr, align 8
  %call = call noundef nonnull align 8 dereferenceable(8) ptr @_ZSt12__get_helperILm0EPN9grpc_core33ConnectivityStateWatcherInterfaceEJNS0_16OrphanableDeleteEEERT0_RSt11_Tuple_implIXT_EJS4_DpT1_EE(ptr noundef nonnull align 8 dereferenceable(8) %0) #3
  ret ptr %call
}

; Function Attrs: mustprogress nounwind uwtable
define linkonce_odr noundef nonnull align 1 dereferenceable(1) ptr @_ZSt3getILm1EJPN9grpc_core33ConnectivityStateWatcherInterfaceENS0_16OrphanableDeleteEEERNSt13tuple_elementIXT_ESt5tupleIJDpT0_EEE4typeERS8_(ptr noundef nonnull align 8 dereferenceable(8) %__t) #5 comdat {
entry:
  %__t.addr = alloca ptr, align 8
  store ptr %__t, ptr %__t.addr, align 8
  %0 = load ptr, ptr %__t.addr, align 8
  %call = call noundef nonnull align 1 dereferenceable(1) ptr @_ZSt12__get_helperILm1EN9grpc_core16OrphanableDeleteEJEERT0_RSt11_Tuple_implIXT_EJS2_DpT1_EE(ptr noundef nonnull align 1 dereferenceable(1) %0) #3
  ret ptr %call
}

; Function Attrs: mustprogress uwtable
define linkonce_odr void @_ZN9grpc_core16OrphanableDeleteclINS_33ConnectivityStateWatcherInterfaceEEEvPT_(ptr noundef nonnull align 1 dereferenceable(1) %this, ptr noundef %p) #4 comdat align 2 {
entry:
  %this.addr = alloca ptr, align 8
  %p.addr = alloca ptr, align 8
  store ptr %this, ptr %this.addr, align 8
  store ptr %p, ptr %p.addr, align 8
  %0 = load ptr, ptr %p.addr, align 8
  %vtable = load ptr, ptr %0, align 8
  %vfn = getelementptr inbounds ptr, ptr %vtable, i64 0
  %1 = load ptr, ptr %vfn, align 8
  call void %1(ptr noundef nonnull align 8 dereferenceable(16) %0)
  ret void
}

; Function Attrs: mustprogress nounwind uwtable
define linkonce_odr noundef nonnull align 8 dereferenceable(8) ptr @_ZNSt15__uniq_ptr_implIN9grpc_core33ConnectivityStateWatcherInterfaceENS0_16OrphanableDeleteEE6_M_ptrEv(ptr noundef nonnull align 8 dereferenceable(8) %this) #5 comdat align 2 {
entry:
  %this.addr = alloca ptr, align 8
  store ptr %this, ptr %this.addr, align 8
  %this1 = load ptr, ptr %this.addr, align 8
  %_M_t = getelementptr inbounds %"class.std::__uniq_ptr_impl", ptr %this1, i32 0, i32 0
  %call = call noundef nonnull align 8 dereferenceable(8) ptr @_ZSt3getILm0EJPN9grpc_core33ConnectivityStateWatcherInterfaceENS0_16OrphanableDeleteEEERNSt13tuple_elementIXT_ESt5tupleIJDpT0_EEE4typeERS8_(ptr noundef nonnull align 8 dereferenceable(8) %_M_t) #3
  ret ptr %call
}

; Function Attrs: mustprogress nounwind uwtable
define linkonce_odr noundef nonnull align 1 dereferenceable(1) ptr @_ZNSt15__uniq_ptr_implIN9grpc_core33ConnectivityStateWatcherInterfaceENS0_16OrphanableDeleteEE10_M_deleterEv(ptr noundef nonnull align 8 dereferenceable(8) %this) #5 comdat align 2 {
entry:
  %this.addr = alloca ptr, align 8
  store ptr %this, ptr %this.addr, align 8
  %this1 = load ptr, ptr %this.addr, align 8
  %_M_t = getelementptr inbounds %"class.std::__uniq_ptr_impl", ptr %this1, i32 0, i32 0
  %call = call noundef nonnull align 1 dereferenceable(1) ptr @_ZSt3getILm1EJPN9grpc_core33ConnectivityStateWatcherInterfaceENS0_16OrphanableDeleteEEERNSt13tuple_elementIXT_ESt5tupleIJDpT0_EEE4typeERS8_(ptr noundef nonnull align 8 dereferenceable(8) %_M_t) #3
  ret ptr %call
}

; Function Attrs: mustprogress nounwind uwtable
define linkonce_odr void @_ZNSt15__uniq_ptr_implIN9grpc_core33ConnectivityStateWatcherInterfaceENS0_16OrphanableDeleteEE5resetEPS1_(ptr noundef nonnull align 8 dereferenceable(8) %this, ptr noundef %__p) #5 comdat align 2 personality ptr @__gxx_personality_v0 {
entry:
  %this.addr = alloca ptr, align 8
  %__p.addr = alloca ptr, align 8
  %__old_p = alloca ptr, align 8
  store ptr %this, ptr %this.addr, align 8
  store ptr %__p, ptr %__p.addr, align 8
  %this1 = load ptr, ptr %this.addr, align 8
  %call = call noundef nonnull align 8 dereferenceable(8) ptr @_ZNSt15__uniq_ptr_implIN9grpc_core33ConnectivityStateWatcherInterfaceENS0_16OrphanableDeleteEE6_M_ptrEv(ptr noundef nonnull align 8 dereferenceable(8) %this1) #3
  %0 = load ptr, ptr %call, align 8
  store ptr %0, ptr %__old_p, align 8
  %1 = load ptr, ptr %__p.addr, align 8
  %call2 = call noundef nonnull align 8 dereferenceable(8) ptr @_ZNSt15__uniq_ptr_implIN9grpc_core33ConnectivityStateWatcherInterfaceENS0_16OrphanableDeleteEE6_M_ptrEv(ptr noundef nonnull align 8 dereferenceable(8) %this1) #3
  store ptr %1, ptr %call2, align 8
  %2 = load ptr, ptr %__old_p, align 8
  %tobool = icmp ne ptr %2, null
  br i1 %tobool, label %if.then, label %if.end

if.then:                                          ; preds = %entry
  %call3 = call noundef nonnull align 1 dereferenceable(1) ptr @_ZNSt15__uniq_ptr_implIN9grpc_core33ConnectivityStateWatcherInterfaceENS0_16OrphanableDeleteEE10_M_deleterEv(ptr noundef nonnull align 8 dereferenceable(8) %this1) #3
  %3 = load ptr, ptr %__old_p, align 8
  invoke void @_ZN9grpc_core16OrphanableDeleteclINS_33ConnectivityStateWatcherInterfaceEEEvPT_(ptr noundef nonnull align 1 dereferenceable(1) %call3, ptr noundef %3)
          to label %invoke.cont unwind label %terminate.lpad

invoke.cont:                                      ; preds = %if.then
  br label %if.end

if.end:                                           ; preds = %invoke.cont, %entry
  ret void

terminate.lpad:                                   ; preds = %if.then
  %4 = landingpad { ptr, i32 }
          catch ptr null
  %5 = extractvalue { ptr, i32 } %4, 0
  call void @__clang_call_terminate(ptr %5) #18
  unreachable
}

; Function Attrs: mustprogress nounwind uwtable
define linkonce_odr noundef ptr @_ZNSt15__uniq_ptr_implIN9grpc_core33ConnectivityStateWatcherInterfaceENS0_16OrphanableDeleteEE7releaseEv(ptr noundef nonnull align 8 dereferenceable(8) %this) #5 comdat align 2 {
entry:
  %this.addr = alloca ptr, align 8
  %__p = alloca ptr, align 8
  store ptr %this, ptr %this.addr, align 8
  %this1 = load ptr, ptr %this.addr, align 8
  %call = call noundef nonnull align 8 dereferenceable(8) ptr @_ZNSt15__uniq_ptr_implIN9grpc_core33ConnectivityStateWatcherInterfaceENS0_16OrphanableDeleteEE6_M_ptrEv(ptr noundef nonnull align 8 dereferenceable(8) %this1) #3
  %0 = load ptr, ptr %call, align 8
  store ptr %0, ptr %__p, align 8
  %call2 = call noundef nonnull align 8 dereferenceable(8) ptr @_ZNSt15__uniq_ptr_implIN9grpc_core33ConnectivityStateWatcherInterfaceENS0_16OrphanableDeleteEE6_M_ptrEv(ptr noundef nonnull align 8 dereferenceable(8) %this1) #3
  store ptr null, ptr %call2, align 8
  %1 = load ptr, ptr %__p, align 8
  ret ptr %1
}

; Function Attrs: mustprogress nounwind uwtable
define linkonce_odr noundef nonnull align 8 dereferenceable(8) ptr @_ZNSt15__uniq_ptr_implIN9grpc_core33ConnectivityStateWatcherInterfaceENS0_16OrphanableDeleteEEaSEOS3_(ptr noundef nonnull align 8 dereferenceable(8) %this, ptr noundef nonnull align 8 dereferenceable(8) %__u) #5 comdat align 2 {
entry:
  %this.addr = alloca ptr, align 8
  %__u.addr = alloca ptr, align 8
  store ptr %this, ptr %this.addr, align 8
  store ptr %__u, ptr %__u.addr, align 8
  %this1 = load ptr, ptr %this.addr, align 8
  %0 = load ptr, ptr %__u.addr, align 8
  %call = call noundef ptr @_ZNSt15__uniq_ptr_implIN9grpc_core33ConnectivityStateWatcherInterfaceENS0_16OrphanableDeleteEE7releaseEv(ptr noundef nonnull align 8 dereferenceable(8) %0) #3
  call void @_ZNSt15__uniq_ptr_implIN9grpc_core33ConnectivityStateWatcherInterfaceENS0_16OrphanableDeleteEE5resetEPS1_(ptr noundef nonnull align 8 dereferenceable(8) %this1, ptr noundef %call) #3
  %1 = load ptr, ptr %__u.addr, align 8
  %call2 = call noundef nonnull align 1 dereferenceable(1) ptr @_ZNSt15__uniq_ptr_implIN9grpc_core33ConnectivityStateWatcherInterfaceENS0_16OrphanableDeleteEE10_M_deleterEv(ptr noundef nonnull align 8 dereferenceable(8) %1) #3
  %call3 = call noundef nonnull align 1 dereferenceable(1) ptr @_ZNSt15__uniq_ptr_implIN9grpc_core33ConnectivityStateWatcherInterfaceENS0_16OrphanableDeleteEE10_M_deleterEv(ptr noundef nonnull align 8 dereferenceable(8) %this1) #3
  ret ptr %this1
}

; Function Attrs: mustprogress nounwind uwtable
define linkonce_odr noundef nonnull align 8 dereferenceable(8) ptr @_ZNSt15__uniq_ptr_dataIN9grpc_core33ConnectivityStateWatcherInterfaceENS0_16OrphanableDeleteELb1ELb1EEaSEOS3_(ptr noundef nonnull align 8 dereferenceable(8) %this, ptr noundef nonnull align 8 dereferenceable(8) %0) #5 comdat align 2 {
entry:
  %this.addr = alloca ptr, align 8
  %.addr = alloca ptr, align 8
  store ptr %this, ptr %this.addr, align 8
  store ptr %0, ptr %.addr, align 8
  %this1 = load ptr, ptr %this.addr, align 8
  %1 = load ptr, ptr %.addr, align 8
  %call = call noundef nonnull align 8 dereferenceable(8) ptr @_ZNSt15__uniq_ptr_implIN9grpc_core33ConnectivityStateWatcherInterfaceENS0_16OrphanableDeleteEEaSEOS3_(ptr noundef nonnull align 8 dereferenceable(8) %this1, ptr noundef nonnull align 8 dereferenceable(8) %1) #3
  ret ptr %this1
}

; Function Attrs: mustprogress nounwind uwtable
define linkonce_odr noundef nonnull align 8 dereferenceable(8) ptr @_ZNSt10unique_ptrIN9grpc_core33ConnectivityStateWatcherInterfaceENS0_16OrphanableDeleteEEaSEOS3_(ptr noundef nonnull align 8 dereferenceable(8) %this, ptr noundef nonnull align 8 dereferenceable(8) %0) #5 comdat align 2 {
entry:
  %this.addr = alloca ptr, align 8
  %.addr = alloca ptr, align 8
  store ptr %this, ptr %this.addr, align 8
  store ptr %0, ptr %.addr, align 8
  %this1 = load ptr, ptr %this.addr, align 8
  %_M_t = getelementptr inbounds %"class.std::unique_ptr", ptr %this1, i32 0, i32 0
  %1 = load ptr, ptr %.addr, align 8
  %_M_t2 = getelementptr inbounds %"class.std::unique_ptr", ptr %1, i32 0, i32 0
  %call = call noundef nonnull align 8 dereferenceable(8) ptr @_ZNSt15__uniq_ptr_dataIN9grpc_core33ConnectivityStateWatcherInterfaceENS0_16OrphanableDeleteELb1ELb1EEaSEOS3_(ptr noundef nonnull align 8 dereferenceable(8) %_M_t, ptr noundef nonnull align 8 dereferenceable(8) %_M_t2) #3
  ret ptr %this1
}

; Function Attrs: mustprogress uwtable
define void @_ZN9grpc_core19ConnectedSubchannel10StartWatchEP16grpc_pollset_setSt10unique_ptrINS_33ConnectivityStateWatcherInterfaceENS_16OrphanableDeleteEE(ptr noundef nonnull align 8 dereferenceable(40) %this, ptr noundef %interested_parties, ptr noundef %watcher) #4 align 2 {
entry:
  %this.addr = alloca ptr, align 8
  %interested_parties.addr = alloca ptr, align 8
  %watcher.indirect_addr = alloca ptr, align 8
  %op = alloca ptr, align 8
  %elem = alloca ptr, align 8
  store ptr %this, ptr %this.addr, align 8
  store ptr %interested_parties, ptr %interested_parties.addr, align 8
  store ptr %watcher, ptr %watcher.indirect_addr, align 8
  %this1 = load ptr, ptr %this.addr, align 8
  %call = call noundef ptr @_Z22grpc_make_transport_opP12grpc_closure(ptr noundef null)
  store ptr %call, ptr %op, align 8
  %0 = load ptr, ptr %op, align 8
  %start_connectivity_watch = getelementptr inbounds %struct.grpc_transport_op, ptr %0, i32 0, i32 1
  %call2 = call noundef nonnull align 8 dereferenceable(8) ptr @_ZNSt10unique_ptrIN9grpc_core33ConnectivityStateWatcherInterfaceENS0_16OrphanableDeleteEEaSEOS3_(ptr noundef nonnull align 8 dereferenceable(8) %start_connectivity_watch, ptr noundef nonnull align 8 dereferenceable(8) %watcher) #3
  %1 = load ptr, ptr %op, align 8
  %start_connectivity_watch_state = getelementptr inbounds %struct.grpc_transport_op, ptr %1, i32 0, i32 13
  store i32 2, ptr %start_connectivity_watch_state, align 8
  %2 = load ptr, ptr %interested_parties.addr, align 8
  %3 = load ptr, ptr %op, align 8
  %bind_pollset_set = getelementptr inbounds %struct.grpc_transport_op, ptr %3, i32 0, i32 11
  store ptr %2, ptr %bind_pollset_set, align 8
  %channel_stack_ = getelementptr inbounds %"class.grpc_core::ConnectedSubchannel", ptr %this1, i32 0, i32 1
  %4 = load ptr, ptr %channel_stack_, align 8
  %call3 = call noundef ptr @_Z26grpc_channel_stack_elementP18grpc_channel_stackm(ptr noundef %4, i64 noundef 0)
  store ptr %call3, ptr %elem, align 8
  %5 = load ptr, ptr %elem, align 8
  %filter = getelementptr inbounds %struct.grpc_channel_element, ptr %5, i32 0, i32 0
  %6 = load ptr, ptr %filter, align 8
  %start_transport_op = getelementptr inbounds %struct.grpc_channel_filter, ptr %6, i32 0, i32 3
  %7 = load ptr, ptr %start_transport_op, align 8
  %8 = load ptr, ptr %elem, align 8
  %9 = load ptr, ptr %op, align 8
  call void %7(ptr noundef %8, ptr noundef %9)
  ret void
}