; Function Attrs: mustprogress uwtable
define void @_ZN9grpc_core19ConnectedSubchannel10StartWatchEP16grpc_pollset_setSt10unique_ptrINS_33ConnectivityStateWatcherInterfaceENS_16OrphanableDeleteEE(ptr nocapture noundef nonnull readonly align 8 dereferenceable(40) %this, ptr noundef %interested_parties, ptr nocapture noundef %watcher) local_unnamed_addr #3 align 2 personality ptr @__gxx_personality_v0 {
entry:
  %call = tail call noundef ptr @_Z22grpc_make_transport_opP12grpc_closure(ptr noundef null)
  %start_connectivity_watch = getelementptr inbounds i8, ptr %call, i64 8
  %0 = load ptr, ptr %watcher, align 8
  store ptr null, ptr %watcher, align 8
  %1 = load ptr, ptr %start_connectivity_watch, align 8
  store ptr %0, ptr %start_connectivity_watch, align 8
  %tobool.not.i.i.i.i = icmp eq ptr %1, null
  br i1 %tobool.not.i.i.i.i, label %_ZNSt10unique_ptrIN9grpc_core33ConnectivityStateWatcherInterfaceENS0_16OrphanableDeleteEEaSEOS3_.exit, label %if.then.i.i.i.i

if.then.i.i.i.i:                                  ; preds = %entry
  %vtable.i.i.i.i.i = load ptr, ptr %1, align 8
  %2 = load ptr, ptr %vtable.i.i.i.i.i, align 8
  invoke void %2(ptr noundef nonnull align 8 dereferenceable(16) %1)
          to label %_ZNSt10unique_ptrIN9grpc_core33ConnectivityStateWatcherInterfaceENS0_16OrphanableDeleteEEaSEOS3_.exit unwind label %terminate.lpad.i.i.i.i

terminate.lpad.i.i.i.i:                           ; preds = %if.then.i.i.i.i
  %3 = landingpad { ptr, i32 }
          catch ptr null
  %4 = extractvalue { ptr, i32 } %3, 0
  tail call void @__clang_call_terminate(ptr %4) #27
  unreachable

_ZNSt10unique_ptrIN9grpc_core33ConnectivityStateWatcherInterfaceENS0_16OrphanableDeleteEEaSEOS3_.exit: ; preds = %entry, %if.then.i.i.i.i
  %start_connectivity_watch_state = getelementptr inbounds i8, ptr %call, i64 112
  store i32 2, ptr %start_connectivity_watch_state, align 8
  %bind_pollset_set = getelementptr inbounds i8, ptr %call, i64 88
  store ptr %interested_parties, ptr %bind_pollset_set, align 8
  %channel_stack_ = getelementptr inbounds i8, ptr %this, i64 16
  %5 = load ptr, ptr %channel_stack_, align 8
  %call3 = tail call noundef ptr @_Z26grpc_channel_stack_elementP18grpc_channel_stackm(ptr noundef %5, i64 noundef 0)
  %6 = load ptr, ptr %call3, align 8
  %start_transport_op = getelementptr inbounds i8, ptr %6, i64 24
  %7 = load ptr, ptr %start_transport_op, align 8
  tail call void %7(ptr noundef nonnull %call3, ptr noundef nonnull %call)
  ret void
}